target datalayout = "e-m:e-p270:32:32-p271:32:32-p272:64:64-i64:64-i128:128-f80:128-n8:16:32:64-S128"
target triple = "x86_64-pc-linux-gnu"

%struct.H5FD_splitter_fapl_t = type { i64, i64, [4097 x i8], [4097 x i8], i8 }
%struct.H5FD_splitter_t = type { %struct.H5FD_t, i32, %struct.H5FD_splitter_fapl_t, ptr, ptr, ptr }
%struct.H5FD_t = type { i64, ptr, i64, i32, i64, i64, i64, i64, i64, i8 }

@H5FD_init_g = external global i8, align 1
@H5_libterm_g = external global i8, align 1
@.str = private unnamed_addr constant [106 x i8] c"generated/home/dtcxzyw/WorkSpace/Projects/compilers/llvm-opt-benchmark/bench/hdf5/hdf5/src/H5FDsplitter.c\00", align 1
@H5E_VFL_g = external global i64, align 8
@H5E_ARGS_g = external global i64, align 8
@H5_H5FD_splitter_t_reg_free_list = internal global { i8, [3 x i8], i32, i32, [4 x i8], ptr, i64, ptr } { i8 0, [3 x i8] zeroinitializer, i32 0, i32 0, [4 x i8] zeroinitializer, ptr @.str.34, i64 8328, ptr null }, align 8
@__func__.H5FD__splitter_close = private unnamed_addr constant [21 x i8] c"H5FD__splitter_close\00", align 1
@.str.42 = private unnamed_addr constant [21 x i8] c"can't close R/W FAPL\00", align 1
@.str.43 = private unnamed_addr constant [21 x i8] c"can't close W/O FAPL\00", align 1
@H5E_CANTCLOSEFILE_g = external global i64, align 8
@.str.44 = private unnamed_addr constant [25 x i8] c"unable to close R/W file\00", align 1
@.str.45 = private unnamed_addr constant [25 x i8] c"unable to close W/O file\00", align 1

; Function Attrs: nounwind uwtable
define internal i32 @H5FD__splitter_close(ptr noundef %0) #0 {
  %2 = alloca ptr, align 8
  %3 = alloca ptr, align 8
  %4 = alloca i32, align 4
  %5 = alloca i8, align 1
  store ptr %0, ptr %2, align 8, !tbaa !38
  call void @llvm.lifetime.start.p0(i64 8, ptr %3) #10
  %6 = load ptr, ptr %2, align 8, !tbaa !38
  store ptr %6, ptr %3, align 8, !tbaa !40
  call void @llvm.lifetime.start.p0(i64 4, ptr %4) #10
  store i32 0, ptr %4, align 4, !tbaa !3
  call void @llvm.lifetime.start.p0(i64 1, ptr %5) #10
  store i8 0, ptr %5, align 1, !tbaa !7
  %7 = load i8, ptr @H5FD_init_g, align 1, !tbaa !7, !range !9, !noundef !10
  %8 = trunc i8 %7 to i1
  br i1 %8, label %13, label %9

9:                                                ; preds = %1
  %10 = load i8, ptr @H5_libterm_g, align 1, !tbaa !7, !range !9, !noundef !10
  %11 = trunc i8 %10 to i1
  %12 = xor i1 %11, true
  br label %13

13:                                               ; preds = %9, %1
  %14 = phi i1 [ true, %1 ], [ %12, %9 ]
  %15 = xor i1 %14, true
  %16 = xor i1 %15, true
  %17 = zext i1 %16 to i32
  %18 = sext i32 %17 to i64
  %19 = call i64 @llvm.expect.i64(i64 %18, i64 1)
  %20 = icmp ne i64 %19, 0
  br i1 %20, label %21, label %162

21:                                               ; preds = %13
  %22 = load ptr, ptr %3, align 8, !tbaa !40
  %23 = getelementptr inbounds nuw %struct.H5FD_splitter_t, ptr %22, i32 0, i32 2
  %24 = getelementptr inbounds nuw %struct.H5FD_splitter_fapl_t, ptr %23, i32 0, i32 0
  %25 = load i64, ptr %24, align 8, !tbaa !48
  %26 = call i32 @H5I_dec_ref(i64 noundef %25)
  %27 = icmp slt i32 %26, 0
  br i1 %27, label %28, label %47

28:                                               ; preds = %21
  br label %29

29:                                               ; preds = %28
  br label %30

30:                                               ; preds = %29
  br label %31

31:                                               ; preds = %30
  %32 = load i64, ptr @H5E_VFL_g, align 8, !tbaa !11
  %33 = load i64, ptr @H5E_ARGS_g, align 8, !tbaa !11
  %34 = call i32 (ptr, ptr, i32, i64, i64, ptr, ...) @H5E_printf_stack(ptr noundef @.str, ptr noundef @__func__.H5FD__splitter_close, i32 noundef 887, i64 noundef %32, i64 noundef %33, ptr noundef @.str.42)
  br label %35

35:                                               ; preds = %31
  br label %36

36:                                               ; preds = %35
  store i8 1, ptr %5, align 1, !tbaa !7
  %37 = load i8, ptr %5, align 1, !tbaa !7, !range !9, !noundef !10
  %38 = trunc i8 %37 to i1
  %39 = zext i1 %38 to i8
  store i8 %39, ptr %5, align 1, !tbaa !7
  br label %40

40:                                               ; preds = %36
  br label %41

41:                                               ; preds = %40
  br label %42

42:                                               ; preds = %41
  store i32 -1, ptr %4, align 4, !tbaa !3
  br label %161

43:                                               ; No predecessors!
  br label %44

44:                                               ; preds = %43
  br label %45

45:                                               ; preds = %44
  br label %46

46:                                               ; preds = %45
  br label %47

47:                                               ; preds = %46, %21
  %48 = load ptr, ptr %3, align 8, !tbaa !40
  %49 = getelementptr inbounds nuw %struct.H5FD_splitter_t, ptr %48, i32 0, i32 2
  %50 = getelementptr inbounds nuw %struct.H5FD_splitter_fapl_t, ptr %49, i32 0, i32 1
  %51 = load i64, ptr %50, align 8, !tbaa !49
  %52 = call i32 @H5I_dec_ref(i64 noundef %51)
  %53 = icmp slt i32 %52, 0
  br i1 %53, label %54, label %73

54:                                               ; preds = %47
  br label %55

55:                                               ; preds = %54
  br label %56

56:                                               ; preds = %55
  br label %57

57:                                               ; preds = %56
  %58 = load i64, ptr @H5E_VFL_g, align 8, !tbaa !11
  %59 = load i64, ptr @H5E_ARGS_g, align 8, !tbaa !11
  %60 = call i32 (ptr, ptr, i32, i64, i64, ptr, ...) @H5E_printf_stack(ptr noundef @.str, ptr noundef @__func__.H5FD__splitter_close, i32 noundef 889, i64 noundef %58, i64 noundef %59, ptr noundef @.str.43)
  br label %61

61:                                               ; preds = %57
  br label %62

62:                                               ; preds = %61
  store i8 1, ptr %5, align 1, !tbaa !7
  %63 = load i8, ptr %5, align 1, !tbaa !7, !range !9, !noundef !10
  %64 = trunc i8 %63 to i1
  %65 = zext i1 %64 to i8
  store i8 %65, ptr %5, align 1, !tbaa !7
  br label %66

66:                                               ; preds = %62
  br label %67

67:                                               ; preds = %66
  br label %68

68:                                               ; preds = %67
  store i32 -1, ptr %4, align 4, !tbaa !3
  br label %161

69:                                               ; No predecessors!
  br label %70

70:                                               ; preds = %69
  br label %71

71:                                               ; preds = %70
  br label %72

72:                                               ; preds = %71
  br label %73

73:                                               ; preds = %72, %47
  %74 = load ptr, ptr %3, align 8, !tbaa !40
  %75 = getelementptr inbounds nuw %struct.H5FD_splitter_t, ptr %74, i32 0, i32 3
  %76 = load ptr, ptr %75, align 8, !tbaa !42
  %77 = icmp ne ptr %76, null
  br i1 %77, label %78, label %104

78:                                               ; preds = %73
  %79 = load ptr, ptr %3, align 8, !tbaa !40
  %80 = getelementptr inbounds nuw %struct.H5FD_splitter_t, ptr %79, i32 0, i32 3
  %81 = load ptr, ptr %80, align 8, !tbaa !42
  %82 = call i32 @H5FD_close(ptr noundef %81)
  %83 = icmp eq i32 %82, -1
  br i1 %83, label %84, label %103

84:                                               ; preds = %78
  br label %85

85:                                               ; preds = %84
  br label %86

86:                                               ; preds = %85
  br label %87

87:                                               ; preds = %86
  %88 = load i64, ptr @H5E_VFL_g, align 8, !tbaa !11
  %89 = load i64, ptr @H5E_CANTCLOSEFILE_g, align 8, !tbaa !11
  %90 = call i32 (ptr, ptr, i32, i64, i64, ptr, ...) @H5E_printf_stack(ptr noundef @.str, ptr noundef @__func__.H5FD__splitter_close, i32 noundef 893, i64 noundef %88, i64 noundef %89, ptr noundef @.str.44)
  br label %91

91:                                               ; preds = %87
  br label %92

92:                                               ; preds = %91
  store i8 1, ptr %5, align 1, !tbaa !7
  %93 = load i8, ptr %5, align 1, !tbaa !7, !range !9, !noundef !10
  %94 = trunc i8 %93 to i1
  %95 = zext i1 %94 to i8
  store i8 %95, ptr %5, align 1, !tbaa !7
  br label %96

96:                                               ; preds = %92
  br label %97

97:                                               ; preds = %96
  br label %98

98:                                               ; preds = %97
  store i32 -1, ptr %4, align 4, !tbaa !3
  br label %161

99:                                               ; No predecessors!
  br label %100

100:                                              ; preds = %99
  br label %101

101:                                              ; preds = %100
  br label %102

102:                                              ; preds = %101
  br label %103

103:                                              ; preds = %102, %78
  br label %104

104:                                              ; preds = %103, %73
  %105 = load ptr, ptr %3, align 8, !tbaa !40
  %106 = getelementptr inbounds nuw %struct.H5FD_splitter_t, ptr %105, i32 0, i32 4
  %107 = load ptr, ptr %106, align 8, !tbaa !52
  %108 = icmp ne ptr %107, null
  br i1 %108, label %109, label %146

109:                                              ; preds = %104
  %110 = load ptr, ptr %3, align 8, !tbaa !40
  %111 = getelementptr inbounds nuw %struct.H5FD_splitter_t, ptr %110, i32 0, i32 4
  %112 = load ptr, ptr %111, align 8, !tbaa !52
  %113 = call i32 @H5FD_close(ptr noundef %112)
  %114 = icmp eq i32 %113, -1
  br i1 %114, label %115, label %145

115:                                              ; preds = %109
  %116 = load ptr, ptr %3, align 8, !tbaa !40
  %117 = call i32 @H5FD__splitter_log_error(ptr noundef %116, ptr noundef @__func__.H5FD__splitter_close, ptr noundef @.str.45)
  %118 = load ptr, ptr %3, align 8, !tbaa !40
  %119 = getelementptr inbounds nuw %struct.H5FD_splitter_t, ptr %118, i32 0, i32 2
  %120 = getelementptr inbounds nuw %struct.H5FD_splitter_fapl_t, ptr %119, i32 0, i32 4
  %121 = load i8, ptr %120, align 2, !tbaa !50, !range !9, !noundef !10
  %122 = trunc i8 %121 to i1
  %123 = zext i1 %122 to i32
  %124 = icmp eq i32 0, %123
  br i1 %124, label %125, label %144

125:                                              ; preds = %115
  br label %126

126:                                              ; preds = %125
  br label %127

127:                                              ; preds = %126
  br label %128

128:                                              ; preds = %127
  %129 = load i64, ptr @H5E_VFL_g, align 8, !tbaa !11
  %130 = load i64, ptr @H5E_CANTCLOSEFILE_g, align 8, !tbaa !11
  %131 = call i32 (ptr, ptr, i32, i64, i64, ptr, ...) @H5E_printf_stack(ptr noundef @.str, ptr noundef @__func__.H5FD__splitter_close, i32 noundef 897, i64 noundef %129, i64 noundef %130, ptr noundef @.str.45)
  br label %132

132:                                              ; preds = %128
  br label %133

133:                                              ; preds = %132
  store i8 1, ptr %5, align 1, !tbaa !7
  %134 = load i8, ptr %5, align 1, !tbaa !7, !range !9, !noundef !10
  %135 = trunc i8 %134 to i1
  %136 = zext i1 %135 to i8
  store i8 %136, ptr %5, align 1, !tbaa !7
  br label %137

137:                                              ; preds = %133
  br label %138

138:                                              ; preds = %137
  br label %139

139:                                              ; preds = %138
  store i32 -1, ptr %4, align 4, !tbaa !3
  br label %161

140:                                              ; No predecessors!
  br label %141

141:                                              ; preds = %140
  br label %142

142:                                              ; preds = %141
  br label %143

143:                                              ; preds = %142
  br label %144

144:                                              ; preds = %143, %115
  br label %145

145:                                              ; preds = %144, %109
  br label %146

146:                                              ; preds = %145, %104
  %147 = load ptr, ptr %3, align 8, !tbaa !40
  %148 = getelementptr inbounds nuw %struct.H5FD_splitter_t, ptr %147, i32 0, i32 5
  %149 = load ptr, ptr %148, align 8, !tbaa !51
  %150 = icmp ne ptr %149, null
  br i1 %150, label %151, label %158

151:                                              ; preds = %146
  %152 = load ptr, ptr %3, align 8, !tbaa !40
  %153 = getelementptr inbounds nuw %struct.H5FD_splitter_t, ptr %152, i32 0, i32 5
  %154 = load ptr, ptr %153, align 8, !tbaa !51
  %155 = call i32 @fclose(ptr noundef %154)
  %156 = load ptr, ptr %3, align 8, !tbaa !40
  %157 = getelementptr inbounds nuw %struct.H5FD_splitter_t, ptr %156, i32 0, i32 5
  store ptr null, ptr %157, align 8, !tbaa !51
  br label %158

158:                                              ; preds = %151, %146
  %159 = load ptr, ptr %3, align 8, !tbaa !40
  %160 = call ptr @H5FL_reg_free(ptr noundef @H5_H5FD_splitter_t_reg_free_list, ptr noundef %159)
  store ptr %160, ptr %3, align 8, !tbaa !40
  store ptr null, ptr %3, align 8, !tbaa !40
  br label %161

161:                                              ; preds = %158, %139, %98, %68, %42
  br label %162

162:                                              ; preds = %161, %13
  %163 = load i32, ptr %4, align 4, !tbaa !3
  call void @llvm.lifetime.end.p0(i64 1, ptr %5) #10
  call void @llvm.lifetime.end.p0(i64 4, ptr %4) #10
  call void @llvm.lifetime.end.p0(i64 8, ptr %3) #10
  ret i32 %163
}