; Function Attrs: nounwind uwtable
define internal range(i32 -1, 1) i32 @H5FD__splitter_close(ptr noundef %0) #0 {
  %2 = load i8, ptr @H5FD_init_g, align 1, !tbaa !3, !range !7, !noundef !8
  %3 = trunc nuw i8 %2 to i1
  %4 = load i8, ptr @H5_libterm_g, align 1, !range !7
  %5 = trunc nuw i8 %4 to i1
  %6 = xor i1 %5, true
  %7 = select i1 %3, i1 true, i1 %6
  br i1 %7, label %8, label %57, !prof !9

8:                                                ; preds = %1
  %9 = getelementptr inbounds nuw i8, ptr %0, i64 88
  %10 = load i64, ptr %9, align 8, !tbaa !41
  %11 = tail call i32 @H5I_dec_ref(i64 noundef %10) #12
  %12 = icmp slt i32 %11, 0
  br i1 %12, label %13, label %17

13:                                               ; preds = %8
  %14 = load i64, ptr @H5E_VFL_g, align 8, !tbaa !10
  %15 = load i64, ptr @H5E_ARGS_g, align 8, !tbaa !10
  %16 = tail call i32 (ptr, ptr, i32, i64, i64, ptr, ...) @H5E_printf_stack(ptr noundef nonnull @.str, ptr noundef nonnull @__func__.H5FD__splitter_close, i32 noundef 887, i64 noundef %14, i64 noundef %15, ptr noundef nonnull @.str.42) #12
  br label %57

17:                                               ; preds = %8
  %18 = getelementptr inbounds nuw i8, ptr %0, i64 96
  %19 = load i64, ptr %18, align 8, !tbaa !42
  %20 = tail call i32 @H5I_dec_ref(i64 noundef %19) #12
  %21 = icmp slt i32 %20, 0
  br i1 %21, label %22, label %26

22:                                               ; preds = %17
  %23 = load i64, ptr @H5E_VFL_g, align 8, !tbaa !10
  %24 = load i64, ptr @H5E_ARGS_g, align 8, !tbaa !10
  %25 = tail call i32 (ptr, ptr, i32, i64, i64, ptr, ...) @H5E_printf_stack(ptr noundef nonnull @.str, ptr noundef nonnull @__func__.H5FD__splitter_close, i32 noundef 889, i64 noundef %23, i64 noundef %24, ptr noundef nonnull @.str.43) #12
  br label %57

26:                                               ; preds = %17
  %27 = getelementptr inbounds nuw i8, ptr %0, i64 8304
  %28 = load ptr, ptr %27, align 8, !tbaa !33
  %.not = icmp eq ptr %28, null
  br i1 %.not, label %36, label %29

29:                                               ; preds = %26
  %30 = tail call i32 @H5FD_close(ptr noundef nonnull %28) #12
  %31 = icmp eq i32 %30, -1
  br i1 %31, label %32, label %36

32:                                               ; preds = %29
  %33 = load i64, ptr @H5E_VFL_g, align 8, !tbaa !10
  %34 = load i64, ptr @H5E_CANTCLOSEFILE_g, align 8, !tbaa !10
  %35 = tail call i32 (ptr, ptr, i32, i64, i64, ptr, ...) @H5E_printf_stack(ptr noundef nonnull @.str, ptr noundef nonnull @__func__.H5FD__splitter_close, i32 noundef 893, i64 noundef %33, i64 noundef %34, ptr noundef nonnull @.str.44) #12
  br label %57

36:                                               ; preds = %29, %26
  %37 = getelementptr inbounds nuw i8, ptr %0, i64 8312
  %38 = load ptr, ptr %37, align 8, !tbaa !43
  %.not20 = icmp eq ptr %38, null
  br i1 %.not20, label %50, label %39

39:                                               ; preds = %36
  %40 = tail call i32 @H5FD_close(ptr noundef nonnull %38) #12
  %41 = icmp eq i32 %40, -1
  br i1 %41, label %42, label %50

42:                                               ; preds = %39
  tail call fastcc void @H5FD__splitter_log_error(ptr noundef nonnull %0, ptr noundef nonnull @__func__.H5FD__splitter_close, ptr noundef nonnull @.str.45)
  %43 = getelementptr inbounds nuw i8, ptr %0, i64 8298
  %44 = load i8, ptr %43, align 2, !tbaa !39, !range !7, !noundef !8
  %45 = icmp eq i8 %44, 0
  br i1 %45, label %46, label %50

46:                                               ; preds = %42
  %47 = load i64, ptr @H5E_VFL_g, align 8, !tbaa !10
  %48 = load i64, ptr @H5E_CANTCLOSEFILE_g, align 8, !tbaa !10
  %49 = tail call i32 (ptr, ptr, i32, i64, i64, ptr, ...) @H5E_printf_stack(ptr noundef nonnull @.str, ptr noundef nonnull @__func__.H5FD__splitter_close, i32 noundef 897, i64 noundef %47, i64 noundef %48, ptr noundef nonnull @.str.45) #12
  br label %57

50:                                               ; preds = %39, %42, %36
  %51 = getelementptr inbounds nuw i8, ptr %0, i64 8320
  %52 = load ptr, ptr %51, align 8, !tbaa !40
  %.not21 = icmp eq ptr %52, null
  br i1 %.not21, label %55, label %53

53:                                               ; preds = %50
  %54 = tail call i32 @fclose(ptr noundef nonnull %52)
  store ptr null, ptr %51, align 8, !tbaa !40
  br label %55

55:                                               ; preds = %53, %50
  %56 = tail call ptr @H5FL_reg_free(ptr noundef nonnull @H5_H5FD_splitter_t_reg_free_list, ptr noundef nonnull %0) #12
  br label %57

57:                                               ; preds = %13, %22, %32, %46, %55, %1
  %.0 = phi i32 [ -1, %13 ], [ -1, %22 ], [ -1, %32 ], [ -1, %46 ], [ 0, %55 ], [ 0, %1 ]
  ret i32 %.0
}